; Function Attrs: nounwind uwtable
define internal i32 @conn_read(ptr noundef %0, ptr noundef %1, i32 noundef %2) #0 {
  %4 = getelementptr inbounds nuw i8, ptr %0, i64 48
  %5 = load ptr, ptr %4, align 8, !tbaa !6
  %6 = load i32, ptr %5, align 8, !tbaa !16
  %.not = icmp eq i32 %6, 2
  br i1 %.not, label %10, label %7

7:                                                ; preds = %3
  %8 = tail call fastcc i32 @conn_state(ptr noundef nonnull %0, ptr noundef nonnull %5)
  %9 = icmp slt i32 %8, 1
  br i1 %9, label %20, label %10

10:                                               ; preds = %7, %3
  tail call void @bio_clear_socket_error() #10
  %11 = getelementptr inbounds nuw i8, ptr %0, i64 40
  %12 = load i32, ptr %11, align 8, !tbaa !20
  %13 = sext i32 %2 to i64
  %14 = tail call i64 @recv(i32 noundef %12, ptr noundef %1, i64 noundef %13, i32 noundef 0) #10
  %15 = trunc i64 %14 to i32
  tail call void @BIO_clear_retry_flags(ptr noundef nonnull %0) #10
  %16 = icmp slt i32 %15, 1
  br i1 %16, label %17, label %20

17:                                               ; preds = %10
  %18 = tail call i32 @bio_fd_should_retry(i32 noundef %15) #10
  %.not16 = icmp eq i32 %18, 0
  br i1 %.not16, label %20, label %19

19:                                               ; preds = %17
  tail call void @BIO_set_retry_read(ptr noundef nonnull %0) #10
  br label %20

20:                                               ; preds = %10, %19, %17, %7
  %.0 = phi i32 [ %8, %7 ], [ %15, %17 ], [ %15, %19 ], [ %15, %10 ]
  ret i32 %.0
}